; ModuleID = 'bench/openssl/original/bio_pk7.ll'
source_filename = "bench/openssl/original/bio_pk7.ll"
target datalayout = "e-m:e-p270:32:32-p271:32:32-p272:64:64-i64:64-i128:128-f80:128-n8:16:32:64-S128"
target triple = "x86_64-pc-linux-gnu"

; Function Attrs: nounwind uwtable
define ptr @BIO_new_PKCS7(ptr noundef %0, ptr noundef %1) local_unnamed_addr #0 {
  %3 = tail call ptr @PKCS7_it() #2
  %4 = tail call ptr @BIO_new_NDEF(ptr noundef %0, ptr noundef %1, ptr noundef %3) #2
  ret ptr %4
}

declare ptr @BIO_new_NDEF(ptr noundef, ptr noundef, ptr noundef) local_unnamed_addr #1

declare ptr @PKCS7_it() local_unnamed_addr #1


!llvm.module.flags = !{!0, !1, !2}

!0 = !{i32 1, !"wchar_size", i32 4}
!1 = !{i32 8, !"PIC Level", i32 2}
!2 = !{i32 7, !"uwtable", i32 2}
